target datalayout = "e-m:e-p270:32:32-p271:32:32-p272:64:64-i64:64-i128:128-f80:128-n8:16:32:64-S128"
target triple = "x86_64-pc-linux-gnu"

%struct.object_id = type { [32 x i8], i32 }
%struct.object = type { i32, %struct.object_id }

; Function Attrs: nounwind uwtable
define internal void @set_cruft_mtime(ptr noundef %0, ptr noundef %1, i64 noundef %2, i64 noundef %3) #0 {
  %5 = alloca ptr, align 8
  %6 = alloca ptr, align 8
  %7 = alloca i64, align 8
  %8 = alloca i64, align 8
  store ptr %0, ptr %5, align 8, !tbaa !171
  store ptr %1, ptr %6, align 8, !tbaa !15
  store i64 %2, ptr %7, align 8, !tbaa !13
  store i64 %3, ptr %8, align 8, !tbaa !13
  %9 = load ptr, ptr %5, align 8, !tbaa !171
  %10 = getelementptr inbounds nuw %struct.object, ptr %9, i32 0, i32 1
  %11 = load ptr, ptr %5, align 8, !tbaa !171
  %12 = load i32, ptr %11, align 4
  %13 = lshr i32 %12, 1
  %14 = and i32 %13, 7
  %15 = load ptr, ptr %6, align 8, !tbaa !15
  %16 = load i64, ptr %7, align 8, !tbaa !13
  %17 = load i64, ptr %8, align 8, !tbaa !13
  %18 = trunc i64 %17 to i32
  call void @add_cruft_object_entry(ptr noundef %10, i32 noundef %14, ptr noundef %15, i64 noundef %16, ptr noundef null, i32 noundef %18)
  ret void
}