; Function Attrs: nounwind uwtable
define internal void @set_cruft_mtime(ptr noundef %0, ptr noundef %1, i64 noundef %2, i64 noundef %3) #0 {
  %5 = getelementptr inbounds nuw i8, ptr %0, i64 4
  %6 = load i32, ptr %0, align 4
  %7 = lshr i32 %6, 1
  %8 = and i32 %7, 7
  %9 = trunc i64 %3 to i32
  tail call fastcc void @add_cruft_object_entry(ptr noundef nonnull %5, i32 noundef %8, ptr noundef %1, i64 noundef %2, ptr noundef null, i32 noundef %9)
  ret void
}